target datalayout = "e-m:e-p270:32:32-p271:32:32-p272:64:64-i64:64-i128:128-f80:128-n8:16:32:64-S128"
target triple = "x86_64-pc-linux-gnu"

%"class.cv::optflow::OpticalFlowDeepFlow" = type <{ %"class.cv::DenseOpticalFlow", float, i32, float, i32, i32, float, float, float, float, i32, i32, [4 x i8] }>
%"class.cv::DenseOpticalFlow" = type { %"class.cv::Algorithm" }
%"class.cv::Algorithm" = type { ptr }

; Function Attrs: inlinehint mustprogress uwtable
define linkonce_odr hidden void @_ZN2cv16DenseOpticalFlowC2Ev(ptr noundef nonnull align 8 dereferenceable(8) %0) unnamed_addr #1 comdat align 2 {
  %2 = alloca ptr, align 8
  store ptr %0, ptr %2, align 8, !tbaa !26
  %3 = load ptr, ptr %2, align 8
  call void @_ZN2cv9AlgorithmC2Ev(ptr noundef nonnull align 8 dereferenceable(8) %3)
  store ptr getelementptr inbounds inrange(-16, 80) ({ [12 x ptr] }, ptr @_ZTVN2cv16DenseOpticalFlowE, i32 0, i32 0, i32 2), ptr %3, align 8, !tbaa !8
  ret void
}

; Function Attrs: mustprogress uwtable
define hidden void @_ZN2cv7optflow19OpticalFlowDeepFlowC2Ev(ptr noundef nonnull align 8 dereferenceable(52) %0) unnamed_addr #0 align 2 {
  %2 = alloca ptr, align 8
  store ptr %0, ptr %2, align 8, !tbaa !3
  %3 = load ptr, ptr %2, align 8
  call void @_ZN2cv16DenseOpticalFlowC2Ev(ptr noundef nonnull align 8 dereferenceable(8) %3)
  store ptr getelementptr inbounds inrange(-16, 80) ({ [12 x ptr] }, ptr @_ZTVN2cv7optflow19OpticalFlowDeepFlowE, i32 0, i32 0, i32 2), ptr %3, align 8, !tbaa !8
  %4 = getelementptr inbounds nuw %"class.cv::optflow::OpticalFlowDeepFlow", ptr %3, i32 0, i32 1
  store float 0x3FE3333340000000, ptr %4, align 8, !tbaa !10
  %5 = getelementptr inbounds nuw %"class.cv::optflow::OpticalFlowDeepFlow", ptr %3, i32 0, i32 2
  store i32 25, ptr %5, align 4, !tbaa !16
  %6 = getelementptr inbounds nuw %"class.cv::optflow::OpticalFlowDeepFlow", ptr %3, i32 0, i32 3
  store float 0x3FEE666660000000, ptr %6, align 8, !tbaa !17
  %7 = getelementptr inbounds nuw %"class.cv::optflow::OpticalFlowDeepFlow", ptr %3, i32 0, i32 4
  store i32 5, ptr %7, align 4, !tbaa !18
  %8 = getelementptr inbounds nuw %"class.cv::optflow::OpticalFlowDeepFlow", ptr %3, i32 0, i32 5
  store i32 25, ptr %8, align 8, !tbaa !19
  %9 = getelementptr inbounds nuw %"class.cv::optflow::OpticalFlowDeepFlow", ptr %3, i32 0, i32 6
  store float 1.000000e+00, ptr %9, align 4, !tbaa !20
  %10 = getelementptr inbounds nuw %"class.cv::optflow::OpticalFlowDeepFlow", ptr %3, i32 0, i32 7
  store float 5.000000e-01, ptr %10, align 8, !tbaa !21
  %11 = getelementptr inbounds nuw %"class.cv::optflow::OpticalFlowDeepFlow", ptr %3, i32 0, i32 8
  store float 5.000000e+00, ptr %11, align 4, !tbaa !22
  %12 = getelementptr inbounds nuw %"class.cv::optflow::OpticalFlowDeepFlow", ptr %3, i32 0, i32 9
  store float 0x3FF99999A0000000, ptr %12, align 8, !tbaa !23
  %13 = getelementptr inbounds nuw %"class.cv::optflow::OpticalFlowDeepFlow", ptr %3, i32 0, i32 11
  store i32 1, ptr %13, align 8, !tbaa !24
  %14 = getelementptr inbounds nuw %"class.cv::optflow::OpticalFlowDeepFlow", ptr %3, i32 0, i32 10
  store i32 200, ptr %14, align 4, !tbaa !25
  ret void
}