; Function Attrs: mustprogress uwtable
define hidden void @_ZN2cv7optflow19OpticalFlowDeepFlowC2Ev(ptr noundef nonnull align 8 dereferenceable(52) %0) unnamed_addr #0 align 2 {
  tail call void @_ZN2cv9AlgorithmC2Ev(ptr noundef nonnull align 8 dereferenceable(8) %0)
  store ptr getelementptr inbounds nuw inrange(-16, 80) (i8, ptr @_ZTVN2cv7optflow19OpticalFlowDeepFlowE, i64 16), ptr %0, align 8, !tbaa !3
  %2 = getelementptr inbounds nuw i8, ptr %0, i64 8
  store float 0x3FE3333340000000, ptr %2, align 8, !tbaa !6
  %3 = getelementptr inbounds nuw i8, ptr %0, i64 12
  store i32 25, ptr %3, align 4, !tbaa !13
  %4 = getelementptr inbounds nuw i8, ptr %0, i64 16
  store float 0x3FEE666660000000, ptr %4, align 8, !tbaa !14
  %5 = getelementptr inbounds nuw i8, ptr %0, i64 20
  store i32 5, ptr %5, align 4, !tbaa !15
  %6 = getelementptr inbounds nuw i8, ptr %0, i64 24
  store i32 25, ptr %6, align 8, !tbaa !16
  %7 = getelementptr inbounds nuw i8, ptr %0, i64 28
  store float 1.000000e+00, ptr %7, align 4, !tbaa !17
  %8 = getelementptr inbounds nuw i8, ptr %0, i64 32
  store float 5.000000e-01, ptr %8, align 8, !tbaa !18
  %9 = getelementptr inbounds nuw i8, ptr %0, i64 36
  store float 5.000000e+00, ptr %9, align 4, !tbaa !19
  %10 = getelementptr inbounds nuw i8, ptr %0, i64 40
  store float 0x3FF99999A0000000, ptr %10, align 8, !tbaa !20
  %11 = getelementptr inbounds nuw i8, ptr %0, i64 48
  store i32 1, ptr %11, align 8, !tbaa !21
  %12 = getelementptr inbounds nuw i8, ptr %0, i64 44
  store i32 200, ptr %12, align 4, !tbaa !22
  ret void
}